target datalayout = "e-m:e-p270:32:32-p271:32:32-p272:64:64-i64:64-i128:128-f80:128-n8:16:32:64-S128"
target triple = "x86_64-pc-linux-gnu"

%struct.pmix_value = type { i16, %union.anon }
%union.anon = type { %struct.pmix_envar_t }
%struct.pmix_envar_t = type { ptr, ptr, i8 }

@.str.4 = private unnamed_addr constant [4 x i8] c"yes\00", align 1
@.str.5 = private unnamed_addr constant [5 x i8] c"true\00", align 1
@.str.6 = private unnamed_addr constant [3 x i8] c"no\00", align 1
@.str.7 = private unnamed_addr constant [6 x i8] c"false\00", align 1

; Function Attrs: inlinehint nounwind willreturn memory(read) uwtable
define available_externally i32 @atoi(ptr noundef nonnull %0) #12 {
  %2 = alloca ptr, align 8
  store ptr %0, ptr %2, align 8, !tbaa !3
  %3 = load ptr, ptr %2, align 8, !tbaa !3
  %4 = call i64 @strtol(ptr noundef %3, ptr noundef null, i32 noundef 10) #15
  %5 = trunc i64 %4 to i32
  ret i32 %5
}

; Function Attrs: inlinehint nounwind uwtable
define internal i32 @pmix_bfrops_base_tma_value_true(ptr noundef %0, ptr noundef %1) #1 {
  %3 = alloca i32, align 4
  %4 = alloca ptr, align 8
  %5 = alloca ptr, align 8
  %6 = alloca ptr, align 8
  %7 = alloca i32, align 4
  store ptr %0, ptr %4, align 8, !tbaa !38
  store ptr %1, ptr %5, align 8, !tbaa !8
  call void @llvm.lifetime.start.p0(i64 8, ptr %6) #15
  %8 = load ptr, ptr %4, align 8, !tbaa !38
  %9 = getelementptr inbounds nuw %struct.pmix_value, ptr %8, i32 0, i32 0
  %10 = load i16, ptr %9, align 8, !tbaa !40
  %11 = zext i16 %10 to i32
  %12 = icmp eq i32 0, %11
  br i1 %12, label %13, label %14

13:                                               ; preds = %2
  store i32 0, ptr %3, align 4
  store i32 1, ptr %7, align 4
  br label %104

14:                                               ; preds = %2
  %15 = load ptr, ptr %4, align 8, !tbaa !38
  %16 = getelementptr inbounds nuw %struct.pmix_value, ptr %15, i32 0, i32 0
  %17 = load i16, ptr %16, align 8, !tbaa !40
  %18 = zext i16 %17 to i32
  %19 = icmp eq i32 1, %18
  br i1 %19, label %20, label %27

20:                                               ; preds = %14
  %21 = load ptr, ptr %4, align 8, !tbaa !38
  %22 = getelementptr inbounds nuw %struct.pmix_value, ptr %21, i32 0, i32 1
  %23 = load i8, ptr %22, align 8, !tbaa !29, !range !27, !noundef !28
  %24 = trunc i8 %23 to i1
  br i1 %24, label %25, label %26

25:                                               ; preds = %20
  store i32 0, ptr %3, align 4
  store i32 1, ptr %7, align 4
  br label %104

26:                                               ; preds = %20
  store i32 1, ptr %3, align 4
  store i32 1, ptr %7, align 4
  br label %104

27:                                               ; preds = %14
  %28 = load ptr, ptr %4, align 8, !tbaa !38
  %29 = getelementptr inbounds nuw %struct.pmix_value, ptr %28, i32 0, i32 0
  %30 = load i16, ptr %29, align 8, !tbaa !40
  %31 = zext i16 %30 to i32
  %32 = icmp eq i32 3, %31
  br i1 %32, label %33, label %103

33:                                               ; preds = %27
  %34 = load ptr, ptr %4, align 8, !tbaa !38
  %35 = getelementptr inbounds nuw %struct.pmix_value, ptr %34, i32 0, i32 1
  %36 = load ptr, ptr %35, align 8, !tbaa !29
  %37 = icmp eq ptr null, %36
  br i1 %37, label %38, label %39

38:                                               ; preds = %33
  store i32 0, ptr %3, align 4
  store i32 1, ptr %7, align 4
  br label %104

39:                                               ; preds = %33
  %40 = load ptr, ptr %4, align 8, !tbaa !38
  %41 = getelementptr inbounds nuw %struct.pmix_value, ptr %40, i32 0, i32 1
  %42 = load ptr, ptr %41, align 8, !tbaa !29
  store ptr %42, ptr %6, align 8, !tbaa !3
  br label %43

43:                                               ; preds = %55, %39
  %44 = call ptr @__ctype_b_loc() #16
  %45 = load ptr, ptr %44, align 8, !tbaa !47
  %46 = load ptr, ptr %6, align 8, !tbaa !3
  %47 = load i8, ptr %46, align 1, !tbaa !29
  %48 = sext i8 %47 to i32
  %49 = sext i32 %48 to i64
  %50 = getelementptr inbounds i16, ptr %45, i64 %49
  %51 = load i16, ptr %50, align 2, !tbaa !49
  %52 = zext i16 %51 to i32
  %53 = and i32 %52, 8192
  %54 = icmp ne i32 %53, 0
  br i1 %54, label %55, label %58

55:                                               ; preds = %43
  %56 = load ptr, ptr %6, align 8, !tbaa !3
  %57 = getelementptr inbounds nuw i8, ptr %56, i32 1
  store ptr %57, ptr %6, align 8, !tbaa !3
  br label %43, !llvm.loop !50

58:                                               ; preds = %43
  %59 = load ptr, ptr %6, align 8, !tbaa !3
  %60 = load i8, ptr %59, align 1, !tbaa !29
  %61 = sext i8 %60 to i32
  %62 = icmp eq i32 0, %61
  br i1 %62, label %63, label %64

63:                                               ; preds = %58
  store i32 0, ptr %3, align 4
  store i32 1, ptr %7, align 4
  br label %104

64:                                               ; preds = %58
  %65 = call ptr @__ctype_b_loc() #16
  %66 = load ptr, ptr %65, align 8, !tbaa !47
  %67 = load ptr, ptr %6, align 8, !tbaa !3
  %68 = load i8, ptr %67, align 1, !tbaa !29
  %69 = sext i8 %68 to i32
  %70 = sext i32 %69 to i64
  %71 = getelementptr inbounds i16, ptr %66, i64 %70
  %72 = load i16, ptr %71, align 2, !tbaa !49
  %73 = zext i16 %72 to i32
  %74 = and i32 %73, 2048
  %75 = icmp ne i32 %74, 0
  br i1 %75, label %76, label %82

76:                                               ; preds = %64
  %77 = load ptr, ptr %6, align 8, !tbaa !3
  %78 = call i32 @atoi(ptr noundef %77) #14
  %79 = icmp eq i32 0, %78
  br i1 %79, label %80, label %81

80:                                               ; preds = %76
  store i32 1, ptr %3, align 4
  store i32 1, ptr %7, align 4
  br label %104

81:                                               ; preds = %76
  store i32 0, ptr %3, align 4
  store i32 1, ptr %7, align 4
  br label %104

82:                                               ; preds = %64
  %83 = load ptr, ptr %6, align 8, !tbaa !3
  %84 = call i32 @strncasecmp(ptr noundef %83, ptr noundef @.str.4, i64 noundef 3) #14
  %85 = icmp eq i32 0, %84
  br i1 %85, label %90, label %86

86:                                               ; preds = %82
  %87 = load ptr, ptr %6, align 8, !tbaa !3
  %88 = call i32 @strncasecmp(ptr noundef %87, ptr noundef @.str.5, i64 noundef 4) #14
  %89 = icmp eq i32 0, %88
  br i1 %89, label %90, label %91

90:                                               ; preds = %86, %82
  store i32 0, ptr %3, align 4
  store i32 1, ptr %7, align 4
  br label %104

91:                                               ; preds = %86
  %92 = load ptr, ptr %6, align 8, !tbaa !3
  %93 = call i32 @strncasecmp(ptr noundef %92, ptr noundef @.str.6, i64 noundef 2) #14
  %94 = icmp eq i32 0, %93
  br i1 %94, label %99, label %95

95:                                               ; preds = %91
  %96 = load ptr, ptr %6, align 8, !tbaa !3
  %97 = call i32 @strncasecmp(ptr noundef %96, ptr noundef @.str.7, i64 noundef 5) #14
  %98 = icmp eq i32 0, %97
  br i1 %98, label %99, label %100

99:                                               ; preds = %95, %91
  store i32 1, ptr %3, align 4
  store i32 1, ptr %7, align 4
  br label %104

100:                                              ; preds = %95
  br label %101

101:                                              ; preds = %100
  br label %102

102:                                              ; preds = %101
  br label %103

103:                                              ; preds = %102, %27
  store i32 2, ptr %3, align 4
  store i32 1, ptr %7, align 4
  br label %104

104:                                              ; preds = %103, %99, %90, %81, %80, %63, %38, %26, %25, %13
  call void @llvm.lifetime.end.p0(i64 8, ptr %6) #15
  %105 = load i32, ptr %3, align 4
  ret i32 %105
}