; Function Attrs: inlinehint nofree nounwind uwtable
define internal fastcc range(i32 0, 3) i32 @pmix_bfrops_base_tma_value_true(ptr noundef readonly captures(none) %0) unnamed_addr #12 {
  %2 = load i16, ptr %0, align 8, !tbaa !25
  switch i16 %2, label %41 [
    i16 0, label %42
    i16 1, label %3
    i16 3, label %7
  ]

3:                                                ; preds = %1
  %4 = getelementptr inbounds nuw i8, ptr %0, i64 8
  %5 = load i8, ptr %4, align 8, !tbaa !3, !range !71, !noundef !72
  %6 = xor i8 %5, 1
  %not. = zext nneg i8 %6 to i32
  br label %42

7:                                                ; preds = %1
  %8 = getelementptr inbounds nuw i8, ptr %0, i64 8
  %9 = load ptr, ptr %8, align 8, !tbaa !3
  %10 = icmp eq ptr %9, null
  br i1 %10, label %42, label %.preheader

.preheader:                                       ; preds = %7
  %11 = tail call ptr @__ctype_b_loc() #46
  %12 = load ptr, ptr %11, align 8, !tbaa !73
  br label %13

13:                                               ; preds = %13, %.preheader
  %.0 = phi ptr [ %20, %13 ], [ %9, %.preheader ]
  %14 = load i8, ptr %.0, align 1, !tbaa !3
  %15 = sext i8 %14 to i64
  %16 = getelementptr inbounds i16, ptr %12, i64 %15
  %17 = load i16, ptr %16, align 2, !tbaa !75
  %18 = zext i16 %17 to i32
  %19 = and i32 %18, 8192
  %.not = icmp eq i32 %19, 0
  %20 = getelementptr inbounds nuw i8, ptr %.0, i64 1
  br i1 %.not, label %21, label %13, !llvm.loop !76

21:                                               ; preds = %13
  %22 = icmp eq i8 %14, 0
  br i1 %22, label %42, label %23

23:                                               ; preds = %21
  %24 = and i32 %18, 2048
  %.not18 = icmp eq i32 %24, 0
  br i1 %.not18, label %29, label %25

25:                                               ; preds = %23
  %26 = tail call i64 @strtol(ptr noundef nonnull captures(none) %.0, ptr noundef null, i32 noundef 10) #44
  %27 = and i64 %26, 4294967295
  %28 = icmp eq i64 %27, 0
  %.19 = zext i1 %28 to i32
  br label %42

29:                                               ; preds = %23
  %30 = tail call i32 @strncasecmp(ptr noundef nonnull %.0, ptr noundef nonnull @.str.4, i64 noundef 3) #42
  %31 = icmp eq i32 %30, 0
  br i1 %31, label %42, label %32

32:                                               ; preds = %29
  %33 = tail call i32 @strncasecmp(ptr noundef nonnull %.0, ptr noundef nonnull @.str.5, i64 noundef 4) #42
  %34 = icmp eq i32 %33, 0
  br i1 %34, label %42, label %35

35:                                               ; preds = %32
  %36 = tail call i32 @strncasecmp(ptr noundef nonnull %.0, ptr noundef nonnull @.str.6, i64 noundef 2) #42
  %37 = icmp eq i32 %36, 0
  br i1 %37, label %42, label %38

38:                                               ; preds = %35
  %39 = tail call i32 @strncasecmp(ptr noundef nonnull %.0, ptr noundef nonnull @.str.7, i64 noundef 5) #42
  %40 = icmp eq i32 %39, 0
  br i1 %40, label %42, label %41

41:                                               ; preds = %1, %38
  br label %42

42:                                               ; preds = %35, %38, %29, %32, %25, %21, %7, %1, %3, %41
  %.015 = phi i32 [ 2, %41 ], [ 0, %1 ], [ %not., %3 ], [ 0, %7 ], [ 0, %21 ], [ %.19, %25 ], [ 0, %32 ], [ 0, %29 ], [ 1, %38 ], [ 1, %35 ]
  ret i32 %.015
}